; Function Attrs: mustprogress nounwind uwtable
define dso_local noundef nonnull align 8 dereferenceable(64) ptr @_ZN4llvm12DWARFContext11getDWOUnitsEb(ptr nocapture noundef nonnull readonly align 8 dereferenceable(105) %0, i1 noundef zeroext %1) local_unnamed_addr #0 align 2 {
  %3 = getelementptr inbounds nuw i8, ptr %0, i64 16
  %4 = load ptr, ptr %3, align 8
  %5 = load ptr, ptr %4, align 8
  %6 = getelementptr inbounds i8, ptr %5, i64 24
  %7 = load ptr, ptr %6, align 8
  %8 = tail call noundef nonnull align 8 dereferenceable(64) ptr %7(ptr noundef nonnull align 8 dereferenceable(16) %4, i1 noundef zeroext %1) #24
  ret ptr %8
}